target datalayout = "e-m:e-p270:32:32-p271:32:32-p272:64:64-i64:64-i128:128-f80:128-n8:16:32:64-S128"
target triple = "x86_64-pc-linux-gnu"

%"struct.Luau::NotNull" = type { ptr }
%"class.Luau::AstNode.base" = type <{ ptr, i32, %"struct.Luau::Location" }>
%"struct.Luau::Location" = type { %"struct.Luau::Position", %"struct.Luau::Position" }
%"struct.Luau::Position" = type { i32, i32 }
%"struct.Luau::DataFlowResult" = type { %"struct.Luau::NotNull", ptr }
%"class.Luau::AstExpr.base" = type { %"class.Luau::AstNode.base" }
%"class.Luau::AstExprTypeAssertion" = type { %"class.Luau::AstExpr.base", ptr, ptr }

; Function Attrs: mustprogress uwtable
define dso_local { ptr, ptr } @_ZN4Luau20DataFlowGraphBuilder9visitExprEPNS_20AstExprTypeAssertionE(ptr noundef nonnull align 8 dereferenceable(336) %0, ptr noundef %1) #2 align 2 {
  %3 = alloca %"struct.Luau::DataFlowResult", align 8
  %4 = alloca ptr, align 8
  %5 = alloca ptr, align 8
  %6 = alloca %"struct.Luau::DataFlowResult", align 8
  store ptr %0, ptr %4, align 8, !tbaa !154
  store ptr %1, ptr %5, align 8, !tbaa !512
  %7 = load ptr, ptr %4, align 8
  call void @llvm.lifetime.start.p0(i64 16, ptr %6) #17
  %8 = load ptr, ptr %5, align 8, !tbaa !512
  %9 = getelementptr inbounds nuw %"class.Luau::AstExprTypeAssertion", ptr %8, i32 0, i32 1
  %10 = load ptr, ptr %9, align 8, !tbaa !575
  %11 = call { ptr, ptr } @_ZN4Luau20DataFlowGraphBuilder9visitExprEPNS_7AstExprE(ptr noundef nonnull align 8 dereferenceable(336) %7, ptr noundef %10)
  %12 = getelementptr inbounds nuw { ptr, ptr }, ptr %6, i32 0, i32 0
  %13 = extractvalue { ptr, ptr } %11, 0
  store ptr %13, ptr %12, align 8
  %14 = getelementptr inbounds nuw { ptr, ptr }, ptr %6, i32 0, i32 1
  %15 = extractvalue { ptr, ptr } %11, 1
  store ptr %15, ptr %14, align 8
  %16 = load ptr, ptr %5, align 8, !tbaa !512
  %17 = getelementptr inbounds nuw %"class.Luau::AstExprTypeAssertion", ptr %16, i32 0, i32 2
  %18 = load ptr, ptr %17, align 8, !tbaa !577
  call void @_ZN4Luau20DataFlowGraphBuilder9visitTypeEPNS_7AstTypeE(ptr noundef nonnull align 8 dereferenceable(336) %7, ptr noundef %18)
  %19 = getelementptr inbounds nuw %"struct.Luau::DataFlowResult", ptr %3, i32 0, i32 0
  %20 = getelementptr inbounds nuw %"struct.Luau::DataFlowResult", ptr %6, i32 0, i32 0
  call void @llvm.memcpy.p0.p0.i64(ptr align 8 %19, ptr align 8 %20, i64 8, i1 false), !tbaa.struct !22
  %21 = getelementptr inbounds nuw %"struct.Luau::DataFlowResult", ptr %3, i32 0, i32 1
  %22 = getelementptr inbounds nuw %"struct.Luau::DataFlowResult", ptr %6, i32 0, i32 1
  %23 = load ptr, ptr %22, align 8, !tbaa !422
  store ptr %23, ptr %21, align 8, !tbaa !422
  call void @llvm.lifetime.end.p0(i64 16, ptr %6) #17
  %24 = load { ptr, ptr }, ptr %3, align 8
  ret { ptr, ptr } %24
}